target datalayout = "e-m:e-p270:32:32-p271:32:32-p272:64:64-i64:64-i128:128-f80:128-n8:16:32:64-S128"
target triple = "x86_64-pc-linux-gnu"

@.str = private unnamed_addr constant [67 x i8] c"error while cloning relation \22%s.%s\22: could not open file \22%s\22: %m\00", align 1
@pg_file_create_mode = external global i32, align 4
@.str.1 = private unnamed_addr constant [69 x i8] c"error while cloning relation \22%s.%s\22: could not create file \22%s\22: %m\00", align 1
@.str.2 = private unnamed_addr constant [56 x i8] c"error while cloning relation \22%s.%s\22 (\22%s\22 to \22%s\22): %s\00", align 1

; Function Attrs: nounwind uwtable
define dso_local void @cloneFile(ptr noundef %0, ptr noundef %1, ptr noundef %2, ptr noundef %3) #0 {
  %5 = alloca ptr, align 8
  %6 = alloca ptr, align 8
  %7 = alloca ptr, align 8
  %8 = alloca ptr, align 8
  %9 = alloca i32, align 4
  %10 = alloca i32, align 4
  %11 = alloca i32, align 4
  store ptr %0, ptr %5, align 8
  store ptr %1, ptr %6, align 8
  store ptr %2, ptr %7, align 8
  store ptr %3, ptr %8, align 8
  call void @llvm.lifetime.start.p0(i64 4, ptr %9) #7
  call void @llvm.lifetime.start.p0(i64 4, ptr %10) #7
  %12 = load ptr, ptr %5, align 8
  %13 = call i32 (ptr, i32, ...) @open(ptr noundef %12, i32 noundef 0, i32 noundef 0)
  store i32 %13, ptr %9, align 4
  %14 = icmp slt i32 %13, 0
  br i1 %14, label %15, label %19

15:                                               ; preds = %4
  %16 = load ptr, ptr %7, align 8
  %17 = load ptr, ptr %8, align 8
  %18 = load ptr, ptr %5, align 8
  call void (ptr, ...) @pg_fatal(ptr noundef @.str, ptr noundef %16, ptr noundef %17, ptr noundef %18) #8
  unreachable

19:                                               ; preds = %4
  %20 = load ptr, ptr %6, align 8
  %21 = load i32, ptr @pg_file_create_mode, align 4
  %22 = call i32 (ptr, i32, ...) @open(ptr noundef %20, i32 noundef 194, i32 noundef %21)
  store i32 %22, ptr %10, align 4
  %23 = icmp slt i32 %22, 0
  br i1 %23, label %24, label %28

24:                                               ; preds = %19
  %25 = load ptr, ptr %7, align 8
  %26 = load ptr, ptr %8, align 8
  %27 = load ptr, ptr %6, align 8
  call void (ptr, ...) @pg_fatal(ptr noundef @.str.1, ptr noundef %25, ptr noundef %26, ptr noundef %27) #8
  unreachable

28:                                               ; preds = %19
  %29 = load i32, ptr %10, align 4
  %30 = load i32, ptr %9, align 4
  %31 = call i32 (i32, i64, ...) @ioctl(i32 noundef %29, i64 noundef 1074041865, i32 noundef %30) #7
  %32 = icmp slt i32 %31, 0
  br i1 %32, label %33, label %44

33:                                               ; preds = %28
  call void @llvm.lifetime.start.p0(i64 4, ptr %11) #7
  %34 = call ptr @__errno_location() #9
  %35 = load i32, ptr %34, align 4
  store i32 %35, ptr %11, align 4
  %36 = load ptr, ptr %6, align 8
  %37 = call i32 @unlink(ptr noundef %36) #7
  %38 = load ptr, ptr %7, align 8
  %39 = load ptr, ptr %8, align 8
  %40 = load ptr, ptr %5, align 8
  %41 = load ptr, ptr %6, align 8
  %42 = load i32, ptr %11, align 4
  %43 = call ptr @pg_strerror(i32 noundef %42)
  call void (ptr, ...) @pg_fatal(ptr noundef @.str.2, ptr noundef %38, ptr noundef %39, ptr noundef %40, ptr noundef %41, ptr noundef %43) #8
  unreachable

44:                                               ; preds = %28
  %45 = load i32, ptr %9, align 4
  %46 = call i32 @close(i32 noundef %45)
  %47 = load i32, ptr %10, align 4
  %48 = call i32 @close(i32 noundef %47)
  call void @llvm.lifetime.end.p0(i64 4, ptr %10) #7
  call void @llvm.lifetime.end.p0(i64 4, ptr %9) #7
  ret void
}