; Function Attrs: nounwind uwtable
define dso_local void @cloneFile(ptr noundef %0, ptr noundef %1, ptr noundef %2, ptr noundef %3) local_unnamed_addr #2 {
  %5 = tail call i32 (ptr, i32, ...) @open(ptr noundef %0, i32 noundef 0, i32 noundef 0) #10
  %6 = icmp slt i32 %5, 0
  br i1 %6, label %7, label %8

7:                                                ; preds = %4
  tail call void (ptr, ...) @pg_fatal(ptr noundef nonnull @.str, ptr noundef %2, ptr noundef %3, ptr noundef %0) #11
  unreachable

8:                                                ; preds = %4
  %9 = load i32, ptr @pg_file_create_mode, align 4
  %10 = tail call i32 (ptr, i32, ...) @open(ptr noundef %1, i32 noundef 194, i32 noundef %9) #10
  %11 = icmp slt i32 %10, 0
  br i1 %11, label %12, label %13

12:                                               ; preds = %8
  tail call void (ptr, ...) @pg_fatal(ptr noundef nonnull @.str.1, ptr noundef %2, ptr noundef %3, ptr noundef %1) #11
  unreachable

13:                                               ; preds = %8
  %14 = tail call i32 (i32, i64, ...) @ioctl(i32 noundef %10, i64 noundef 1074041865, i32 noundef %5) #10
  %15 = icmp slt i32 %14, 0
  br i1 %15, label %16, label %21

16:                                               ; preds = %13
  %17 = tail call ptr @__errno_location() #12
  %18 = load i32, ptr %17, align 4
  %19 = tail call i32 @unlink(ptr noundef %1) #10
  %20 = tail call ptr @pg_strerror(i32 noundef %18) #10
  tail call void (ptr, ...) @pg_fatal(ptr noundef nonnull @.str.2, ptr noundef %2, ptr noundef %3, ptr noundef %0, ptr noundef %1, ptr noundef %20) #11
  unreachable

21:                                               ; preds = %13
  %22 = tail call i32 @close(i32 noundef %5) #10
  %23 = tail call i32 @close(i32 noundef %10) #10
  ret void
}